target datalayout = "e-m:e-p270:32:32-p271:32:32-p272:64:64-i64:64-i128:128-f80:128-n8:16:32:64-S128"
target triple = "x86_64-pc-linux-gnu"

%struct.jpeg_decompress_struct = type { ptr, ptr, ptr, ptr, i32, i32, ptr, i32, i32, i32, i32, i32, i32, i32, double, i32, i32, i32, i32, i32, i32, i32, i32, i32, i32, i32, i32, i32, i32, i32, i32, i32, i32, ptr, i32, i32, i32, i32, i32, ptr, [4 x ptr], [4 x ptr], [4 x ptr], i32, ptr, i32, i32, [16 x i8], [16 x i8], [16 x i8], i32, i32, i8, i8, i8, i16, i16, i32, i8, i32, ptr, i32, i32, i32, i32, ptr, i32, [4 x ptr], i32, i32, i32, [10 x i32], i32, i32, i32, i32, i32, ptr, ptr, ptr, ptr, ptr, ptr, ptr, ptr, ptr, ptr, ptr }

; Function Attrs: nounwind uwtable
define internal void @null_convert(ptr noundef %0, ptr noundef %1, i32 noundef %2, ptr noundef %3, i32 noundef %4) #0 {
  %6 = alloca ptr, align 8
  %7 = alloca ptr, align 8
  %8 = alloca i32, align 4
  %9 = alloca ptr, align 8
  %10 = alloca i32, align 4
  %11 = alloca ptr, align 8
  %12 = alloca ptr, align 8
  %13 = alloca ptr, align 8
  %14 = alloca ptr, align 8
  %15 = alloca ptr, align 8
  %16 = alloca ptr, align 8
  %17 = alloca i32, align 4
  %18 = alloca i32, align 4
  %19 = alloca i32, align 4
  %20 = alloca i32, align 4
  store ptr %0, ptr %6, align 8
  store ptr %1, ptr %7, align 8
  store i32 %2, ptr %8, align 4
  store ptr %3, ptr %9, align 8
  store i32 %4, ptr %10, align 4
  %21 = load ptr, ptr %6, align 8
  %22 = getelementptr inbounds %struct.jpeg_decompress_struct, ptr %21, i32 0, i32 9
  %23 = load i32, ptr %22, align 8
  store i32 %23, ptr %18, align 4
  %24 = load ptr, ptr %6, align 8
  %25 = getelementptr inbounds %struct.jpeg_decompress_struct, ptr %24, i32 0, i32 27
  %26 = load i32, ptr %25, align 8
  store i32 %26, ptr %19, align 4
  %27 = load i32, ptr %18, align 4
  %28 = icmp eq i32 %27, 3
  br i1 %28, label %29, label %92

29:                                               ; preds = %5
  br label %30

30:                                               ; preds = %90, %29
  %31 = load i32, ptr %10, align 4
  %32 = add nsw i32 %31, -1
  store i32 %32, ptr %10, align 4
  %33 = icmp sge i32 %32, 0
  br i1 %33, label %34, label %91

34:                                               ; preds = %30
  %35 = load ptr, ptr %7, align 8
  %36 = getelementptr inbounds ptr, ptr %35, i64 0
  %37 = load ptr, ptr %36, align 8
  %38 = load i32, ptr %8, align 4
  %39 = zext i32 %38 to i64
  %40 = getelementptr inbounds ptr, ptr %37, i64 %39
  %41 = load ptr, ptr %40, align 8
  store ptr %41, ptr %12, align 8
  %42 = load ptr, ptr %7, align 8
  %43 = getelementptr inbounds ptr, ptr %42, i64 1
  %44 = load ptr, ptr %43, align 8
  %45 = load i32, ptr %8, align 4
  %46 = zext i32 %45 to i64
  %47 = getelementptr inbounds ptr, ptr %44, i64 %46
  %48 = load ptr, ptr %47, align 8
  store ptr %48, ptr %13, align 8
  %49 = load ptr, ptr %7, align 8
  %50 = getelementptr inbounds ptr, ptr %49, i64 2
  %51 = load ptr, ptr %50, align 8
  %52 = load i32, ptr %8, align 4
  %53 = zext i32 %52 to i64
  %54 = getelementptr inbounds ptr, ptr %51, i64 %53
  %55 = load ptr, ptr %54, align 8
  store ptr %55, ptr %14, align 8
  %56 = load i32, ptr %8, align 4
  %57 = add i32 %56, 1
  store i32 %57, ptr %8, align 4
  %58 = load ptr, ptr %9, align 8
  %59 = getelementptr inbounds ptr, ptr %58, i32 1
  store ptr %59, ptr %9, align 8
  %60 = load ptr, ptr %58, align 8
  store ptr %60, ptr %16, align 8
  store i32 0, ptr %17, align 4
  br label %61

61:                                               ; preds = %87, %34
  %62 = load i32, ptr %17, align 4
  %63 = load i32, ptr %19, align 4
  %64 = icmp ult i32 %62, %63
  br i1 %64, label %65, label %90

65:                                               ; preds = %61
  %66 = load ptr, ptr %12, align 8
  %67 = load i32, ptr %17, align 4
  %68 = zext i32 %67 to i64
  %69 = getelementptr inbounds i8, ptr %66, i64 %68
  %70 = load i8, ptr %69, align 1
  %71 = load ptr, ptr %16, align 8
  %72 = getelementptr inbounds i8, ptr %71, i32 1
  store ptr %72, ptr %16, align 8
  store i8 %70, ptr %71, align 1
  %73 = load ptr, ptr %13, align 8
  %74 = load i32, ptr %17, align 4
  %75 = zext i32 %74 to i64
  %76 = getelementptr inbounds i8, ptr %73, i64 %75
  %77 = load i8, ptr %76, align 1
  %78 = load ptr, ptr %16, align 8
  %79 = getelementptr inbounds i8, ptr %78, i32 1
  store ptr %79, ptr %16, align 8
  store i8 %77, ptr %78, align 1
  %80 = load ptr, ptr %14, align 8
  %81 = load i32, ptr %17, align 4
  %82 = zext i32 %81 to i64
  %83 = getelementptr inbounds i8, ptr %80, i64 %82
  %84 = load i8, ptr %83, align 1
  %85 = load ptr, ptr %16, align 8
  %86 = getelementptr inbounds i8, ptr %85, i32 1
  store ptr %86, ptr %16, align 8
  store i8 %84, ptr %85, align 1
  br label %87

87:                                               ; preds = %65
  %88 = load i32, ptr %17, align 4
  %89 = add i32 %88, 1
  store i32 %89, ptr %17, align 4
  br label %61, !llvm.loop !38

90:                                               ; preds = %61
  br label %30, !llvm.loop !39

91:                                               ; preds = %30
  br label %226

92:                                               ; preds = %5
  %93 = load i32, ptr %18, align 4
  %94 = icmp eq i32 %93, 4
  br i1 %94, label %95, label %172

95:                                               ; preds = %92
  br label %96

96:                                               ; preds = %170, %95
  %97 = load i32, ptr %10, align 4
  %98 = add nsw i32 %97, -1
  store i32 %98, ptr %10, align 4
  %99 = icmp sge i32 %98, 0
  br i1 %99, label %100, label %171

100:                                              ; preds = %96
  %101 = load ptr, ptr %7, align 8
  %102 = getelementptr inbounds ptr, ptr %101, i64 0
  %103 = load ptr, ptr %102, align 8
  %104 = load i32, ptr %8, align 4
  %105 = zext i32 %104 to i64
  %106 = getelementptr inbounds ptr, ptr %103, i64 %105
  %107 = load ptr, ptr %106, align 8
  store ptr %107, ptr %12, align 8
  %108 = load ptr, ptr %7, align 8
  %109 = getelementptr inbounds ptr, ptr %108, i64 1
  %110 = load ptr, ptr %109, align 8
  %111 = load i32, ptr %8, align 4
  %112 = zext i32 %111 to i64
  %113 = getelementptr inbounds ptr, ptr %110, i64 %112
  %114 = load ptr, ptr %113, align 8
  store ptr %114, ptr %13, align 8
  %115 = load ptr, ptr %7, align 8
  %116 = getelementptr inbounds ptr, ptr %115, i64 2
  %117 = load ptr, ptr %116, align 8
  %118 = load i32, ptr %8, align 4
  %119 = zext i32 %118 to i64
  %120 = getelementptr inbounds ptr, ptr %117, i64 %119
  %121 = load ptr, ptr %120, align 8
  store ptr %121, ptr %14, align 8
  %122 = load ptr, ptr %7, align 8
  %123 = getelementptr inbounds ptr, ptr %122, i64 3
  %124 = load ptr, ptr %123, align 8
  %125 = load i32, ptr %8, align 4
  %126 = zext i32 %125 to i64
  %127 = getelementptr inbounds ptr, ptr %124, i64 %126
  %128 = load ptr, ptr %127, align 8
  store ptr %128, ptr %15, align 8
  %129 = load i32, ptr %8, align 4
  %130 = add i32 %129, 1
  store i32 %130, ptr %8, align 4
  %131 = load ptr, ptr %9, align 8
  %132 = getelementptr inbounds ptr, ptr %131, i32 1
  store ptr %132, ptr %9, align 8
  %133 = load ptr, ptr %131, align 8
  store ptr %133, ptr %16, align 8
  store i32 0, ptr %17, align 4
  br label %134

134:                                              ; preds = %167, %100
  %135 = load i32, ptr %17, align 4
  %136 = load i32, ptr %19, align 4
  %137 = icmp ult i32 %135, %136
  br i1 %137, label %138, label %170

138:                                              ; preds = %134
  %139 = load ptr, ptr %12, align 8
  %140 = load i32, ptr %17, align 4
  %141 = zext i32 %140 to i64
  %142 = getelementptr inbounds i8, ptr %139, i64 %141
  %143 = load i8, ptr %142, align 1
  %144 = load ptr, ptr %16, align 8
  %145 = getelementptr inbounds i8, ptr %144, i32 1
  store ptr %145, ptr %16, align 8
  store i8 %143, ptr %144, align 1
  %146 = load ptr, ptr %13, align 8
  %147 = load i32, ptr %17, align 4
  %148 = zext i32 %147 to i64
  %149 = getelementptr inbounds i8, ptr %146, i64 %148
  %150 = load i8, ptr %149, align 1
  %151 = load ptr, ptr %16, align 8
  %152 = getelementptr inbounds i8, ptr %151, i32 1
  store ptr %152, ptr %16, align 8
  store i8 %150, ptr %151, align 1
  %153 = load ptr, ptr %14, align 8
  %154 = load i32, ptr %17, align 4
  %155 = zext i32 %154 to i64
  %156 = getelementptr inbounds i8, ptr %153, i64 %155
  %157 = load i8, ptr %156, align 1
  %158 = load ptr, ptr %16, align 8
  %159 = getelementptr inbounds i8, ptr %158, i32 1
  store ptr %159, ptr %16, align 8
  store i8 %157, ptr %158, align 1
  %160 = load ptr, ptr %15, align 8
  %161 = load i32, ptr %17, align 4
  %162 = zext i32 %161 to i64
  %163 = getelementptr inbounds i8, ptr %160, i64 %162
  %164 = load i8, ptr %163, align 1
  %165 = load ptr, ptr %16, align 8
  %166 = getelementptr inbounds i8, ptr %165, i32 1
  store ptr %166, ptr %16, align 8
  store i8 %164, ptr %165, align 1
  br label %167

167:                                              ; preds = %138
  %168 = load i32, ptr %17, align 4
  %169 = add i32 %168, 1
  store i32 %169, ptr %17, align 4
  br label %134, !llvm.loop !40

170:                                              ; preds = %134
  br label %96, !llvm.loop !41

171:                                              ; preds = %96
  br label %225

172:                                              ; preds = %92
  br label %173

173:                                              ; preds = %219, %172
  %174 = load i32, ptr %10, align 4
  %175 = add nsw i32 %174, -1
  store i32 %175, ptr %10, align 4
  %176 = icmp sge i32 %175, 0
  br i1 %176, label %177, label %224

177:                                              ; preds = %173
  store i32 0, ptr %20, align 4
  br label %178

178:                                              ; preds = %216, %177
  %179 = load i32, ptr %20, align 4
  %180 = load i32, ptr %18, align 4
  %181 = icmp slt i32 %179, %180
  br i1 %181, label %182, label %219

182:                                              ; preds = %178
  %183 = load ptr, ptr %7, align 8
  %184 = load i32, ptr %20, align 4
  %185 = sext i32 %184 to i64
  %186 = getelementptr inbounds ptr, ptr %183, i64 %185
  %187 = load ptr, ptr %186, align 8
  %188 = load i32, ptr %8, align 4
  %189 = zext i32 %188 to i64
  %190 = getelementptr inbounds ptr, ptr %187, i64 %189
  %191 = load ptr, ptr %190, align 8
  store ptr %191, ptr %11, align 8
  %192 = load ptr, ptr %9, align 8
  %193 = load ptr, ptr %192, align 8
  store ptr %193, ptr %16, align 8
  store i32 0, ptr %17, align 4
  br label %194

194:                                              ; preds = %212, %182
  %195 = load i32, ptr %17, align 4
  %196 = load i32, ptr %19, align 4
  %197 = icmp ult i32 %195, %196
  br i1 %197, label %198, label %215

198:                                              ; preds = %194
  %199 = load ptr, ptr %11, align 8
  %200 = load i32, ptr %17, align 4
  %201 = zext i32 %200 to i64
  %202 = getelementptr inbounds i8, ptr %199, i64 %201
  %203 = load i8, ptr %202, align 1
  %204 = load ptr, ptr %16, align 8
  %205 = load i32, ptr %20, align 4
  %206 = sext i32 %205 to i64
  %207 = getelementptr inbounds i8, ptr %204, i64 %206
  store i8 %203, ptr %207, align 1
  %208 = load i32, ptr %18, align 4
  %209 = load ptr, ptr %16, align 8
  %210 = sext i32 %208 to i64
  %211 = getelementptr inbounds i8, ptr %209, i64 %210
  store ptr %211, ptr %16, align 8
  br label %212

212:                                              ; preds = %198
  %213 = load i32, ptr %17, align 4
  %214 = add i32 %213, 1
  store i32 %214, ptr %17, align 4
  br label %194, !llvm.loop !42

215:                                              ; preds = %194
  br label %216

216:                                              ; preds = %215
  %217 = load i32, ptr %20, align 4
  %218 = add nsw i32 %217, 1
  store i32 %218, ptr %20, align 4
  br label %178, !llvm.loop !43

219:                                              ; preds = %178
  %220 = load ptr, ptr %9, align 8
  %221 = getelementptr inbounds ptr, ptr %220, i32 1
  store ptr %221, ptr %9, align 8
  %222 = load i32, ptr %8, align 4
  %223 = add i32 %222, 1
  store i32 %223, ptr %8, align 4
  br label %173, !llvm.loop !44

224:                                              ; preds = %173
  br label %225

225:                                              ; preds = %224, %171
  br label %226

226:                                              ; preds = %225, %91
  ret void
}