; Function Attrs: nofree norecurse nosync nounwind memory(readwrite, inaccessiblemem: none) uwtable
define internal void @null_convert(ptr nocapture noundef readonly %0, ptr nocapture noundef readonly %1, i32 noundef %2, ptr nocapture noundef readonly %3, i32 noundef %4) #2 {
  %6 = getelementptr inbounds i8, ptr %0, i64 56
  %7 = load i32, ptr %6, align 8
  %8 = getelementptr inbounds i8, ptr %0, i64 136
  %9 = load i32, ptr %8, align 8
  %10 = icmp sgt i32 %4, 0
  switch i32 %7, label %.preheader86 [
    i32 3, label %.preheader88
    i32 4, label %.preheader91
  ]

.preheader91:                                     ; preds = %5
  br i1 %10, label %.lr.ph97, label %.loopexit

.lr.ph97:                                         ; preds = %.preheader91
  %11 = getelementptr inbounds i8, ptr %1, i64 8
  %12 = getelementptr inbounds i8, ptr %1, i64 16
  %13 = getelementptr inbounds i8, ptr %1, i64 24
  %.not = icmp eq i32 %9, 0
  br i1 %.not, label %.loopexit, label %.lr.ph.us.preheader

.lr.ph.us.preheader:                              ; preds = %.lr.ph97
  %wide.trip.count = zext i32 %9 to i64
  br label %.lr.ph.us

.lr.ph.us:                                        ; preds = %.lr.ph.us.preheader, %..loopexit90_crit_edge.us
  %.in = phi i32 [ %14, %..loopexit90_crit_edge.us ], [ %4, %.lr.ph.us.preheader ]
  %.196.us = phi i32 [ %28, %..loopexit90_crit_edge.us ], [ %2, %.lr.ph.us.preheader ]
  %.17195.us = phi ptr [ %43, %..loopexit90_crit_edge.us ], [ %3, %.lr.ph.us.preheader ]
  %14 = add nsw i32 %.in, -1
  %15 = load ptr, ptr %1, align 8
  %16 = zext i32 %.196.us to i64
  %17 = getelementptr inbounds ptr, ptr %15, i64 %16
  %18 = load ptr, ptr %17, align 8
  %19 = load ptr, ptr %11, align 8
  %20 = getelementptr inbounds ptr, ptr %19, i64 %16
  %21 = load ptr, ptr %20, align 8
  %22 = load ptr, ptr %12, align 8
  %23 = getelementptr inbounds ptr, ptr %22, i64 %16
  %24 = load ptr, ptr %23, align 8
  %25 = load ptr, ptr %13, align 8
  %26 = getelementptr inbounds ptr, ptr %25, i64 %16
  %27 = load ptr, ptr %26, align 8
  %28 = add i32 %.196.us, 1
  %29 = load ptr, ptr %.17195.us, align 8
  br label %30

30:                                               ; preds = %.lr.ph.us, %30
  %indvars.iv = phi i64 [ 0, %.lr.ph.us ], [ %indvars.iv.next, %30 ]
  %.17793.us = phi ptr [ %29, %.lr.ph.us ], [ %42, %30 ]
  %31 = getelementptr inbounds i8, ptr %18, i64 %indvars.iv
  %32 = load i8, ptr %31, align 1
  %33 = getelementptr inbounds i8, ptr %.17793.us, i64 1
  store i8 %32, ptr %.17793.us, align 1
  %34 = getelementptr inbounds i8, ptr %21, i64 %indvars.iv
  %35 = load i8, ptr %34, align 1
  %36 = getelementptr inbounds i8, ptr %.17793.us, i64 2
  store i8 %35, ptr %33, align 1
  %37 = getelementptr inbounds i8, ptr %24, i64 %indvars.iv
  %38 = load i8, ptr %37, align 1
  %39 = getelementptr inbounds i8, ptr %.17793.us, i64 3
  store i8 %38, ptr %36, align 1
  %40 = getelementptr inbounds i8, ptr %27, i64 %indvars.iv
  %41 = load i8, ptr %40, align 1
  %42 = getelementptr inbounds i8, ptr %.17793.us, i64 4
  store i8 %41, ptr %39, align 1
  %indvars.iv.next = add nuw nsw i64 %indvars.iv, 1
  %exitcond.not = icmp eq i64 %indvars.iv.next, %wide.trip.count
  br i1 %exitcond.not, label %..loopexit90_crit_edge.us, label %30, !llvm.loop !38

..loopexit90_crit_edge.us:                        ; preds = %30
  %43 = getelementptr inbounds i8, ptr %.17195.us, i64 8
  %44 = icmp sgt i32 %.in, 1
  br i1 %44, label %.lr.ph.us, label %.loopexit, !llvm.loop !39

.preheader88:                                     ; preds = %5
  br i1 %10, label %.lr.ph102, label %.loopexit

.lr.ph102:                                        ; preds = %.preheader88
  %45 = getelementptr inbounds i8, ptr %1, i64 8
  %46 = getelementptr inbounds i8, ptr %1, i64 16
  %.not116 = icmp eq i32 %9, 0
  br i1 %.not116, label %.loopexit, label %.lr.ph.us103.preheader

.lr.ph.us103.preheader:                           ; preds = %.lr.ph102
  %wide.trip.count128 = zext i32 %9 to i64
  br label %.lr.ph.us103

.lr.ph.us103:                                     ; preds = %.lr.ph.us103.preheader, %..loopexit87_crit_edge.us
  %.in140 = phi i32 [ %47, %..loopexit87_crit_edge.us ], [ %4, %.lr.ph.us103.preheader ]
  %.069101.us = phi i32 [ %58, %..loopexit87_crit_edge.us ], [ %2, %.lr.ph.us103.preheader ]
  %.070100.us = phi ptr [ %70, %..loopexit87_crit_edge.us ], [ %3, %.lr.ph.us103.preheader ]
  %47 = add nsw i32 %.in140, -1
  %48 = load ptr, ptr %1, align 8
  %49 = zext i32 %.069101.us to i64
  %50 = getelementptr inbounds ptr, ptr %48, i64 %49
  %51 = load ptr, ptr %50, align 8
  %52 = load ptr, ptr %45, align 8
  %53 = getelementptr inbounds ptr, ptr %52, i64 %49
  %54 = load ptr, ptr %53, align 8
  %55 = load ptr, ptr %46, align 8
  %56 = getelementptr inbounds ptr, ptr %55, i64 %49
  %57 = load ptr, ptr %56, align 8
  %58 = add i32 %.069101.us, 1
  %59 = load ptr, ptr %.070100.us, align 8
  br label %60

60:                                               ; preds = %.lr.ph.us103, %60
  %indvars.iv125 = phi i64 [ 0, %.lr.ph.us103 ], [ %indvars.iv.next126, %60 ]
  %.07698.us = phi ptr [ %59, %.lr.ph.us103 ], [ %69, %60 ]
  %61 = getelementptr inbounds i8, ptr %51, i64 %indvars.iv125
  %62 = load i8, ptr %61, align 1
  %63 = getelementptr inbounds i8, ptr %.07698.us, i64 1
  store i8 %62, ptr %.07698.us, align 1
  %64 = getelementptr inbounds i8, ptr %54, i64 %indvars.iv125
  %65 = load i8, ptr %64, align 1
  %66 = getelementptr inbounds i8, ptr %.07698.us, i64 2
  store i8 %65, ptr %63, align 1
  %67 = getelementptr inbounds i8, ptr %57, i64 %indvars.iv125
  %68 = load i8, ptr %67, align 1
  %69 = getelementptr inbounds i8, ptr %.07698.us, i64 3
  store i8 %68, ptr %66, align 1
  %indvars.iv.next126 = add nuw nsw i64 %indvars.iv125, 1
  %exitcond129.not = icmp eq i64 %indvars.iv.next126, %wide.trip.count128
  br i1 %exitcond129.not, label %..loopexit87_crit_edge.us, label %60, !llvm.loop !40

..loopexit87_crit_edge.us:                        ; preds = %60
  %70 = getelementptr inbounds i8, ptr %.070100.us, i64 8
  %71 = icmp sgt i32 %.in140, 1
  br i1 %71, label %.lr.ph.us103, label %.loopexit, !llvm.loop !41

.preheader86:                                     ; preds = %5
  br i1 %10, label %.preheader.lr.ph, label %.loopexit

.preheader.lr.ph:                                 ; preds = %.preheader86
  %72 = icmp slt i32 %7, 1
  %73 = sext i32 %7 to i64
  %.not117 = icmp eq i32 %9, 0
  %or.cond = select i1 %72, i1 true, i1 %.not117
  br i1 %or.cond, label %.loopexit, label %.preheader.us.us.preheader

.preheader.us.us.preheader:                       ; preds = %.preheader.lr.ph
  %wide.trip.count138 = zext nneg i32 %7 to i64
  %wide.trip.count133 = zext i32 %9 to i64
  br label %.preheader.us.us

.preheader.us.us:                                 ; preds = %.preheader.us.us.preheader, %._crit_edge108.split.us.us.us
  %.in141 = phi i32 [ %74, %._crit_edge108.split.us.us.us ], [ %4, %.preheader.us.us.preheader ]
  %.2112.us.us = phi i32 [ %87, %._crit_edge108.split.us.us.us ], [ %2, %.preheader.us.us.preheader ]
  %.272110.us.us = phi ptr [ %86, %._crit_edge108.split.us.us.us ], [ %3, %.preheader.us.us.preheader ]
  %74 = add nsw i32 %.in141, -1
  %75 = zext i32 %.2112.us.us to i64
  br label %.lr.ph.us109.us.us

.lr.ph.us109.us.us:                               ; preds = %._crit_edge.us.us.us, %.preheader.us.us
  %indvars.iv135 = phi i64 [ %indvars.iv.next136, %._crit_edge.us.us.us ], [ 0, %.preheader.us.us ]
  %76 = getelementptr inbounds ptr, ptr %1, i64 %indvars.iv135
  %77 = load ptr, ptr %76, align 8
  %78 = getelementptr inbounds ptr, ptr %77, i64 %75
  %79 = load ptr, ptr %78, align 8
  %80 = load ptr, ptr %.272110.us.us, align 8
  br label %81

81:                                               ; preds = %81, %.lr.ph.us109.us.us
  %indvars.iv130 = phi i64 [ %indvars.iv.next131, %81 ], [ 0, %.lr.ph.us109.us.us ]
  %.278104.us.us.us = phi ptr [ %85, %81 ], [ %80, %.lr.ph.us109.us.us ]
  %82 = getelementptr inbounds i8, ptr %79, i64 %indvars.iv130
  %83 = load i8, ptr %82, align 1
  %84 = getelementptr inbounds i8, ptr %.278104.us.us.us, i64 %indvars.iv135
  store i8 %83, ptr %84, align 1
  %85 = getelementptr inbounds i8, ptr %.278104.us.us.us, i64 %73
  %indvars.iv.next131 = add nuw nsw i64 %indvars.iv130, 1
  %exitcond134.not = icmp eq i64 %indvars.iv.next131, %wide.trip.count133
  br i1 %exitcond134.not, label %._crit_edge.us.us.us, label %81, !llvm.loop !42

._crit_edge.us.us.us:                             ; preds = %81
  %indvars.iv.next136 = add nuw nsw i64 %indvars.iv135, 1
  %exitcond139.not = icmp eq i64 %indvars.iv.next136, %wide.trip.count138
  br i1 %exitcond139.not, label %._crit_edge108.split.us.us.us, label %.lr.ph.us109.us.us, !llvm.loop !43

._crit_edge108.split.us.us.us:                    ; preds = %._crit_edge.us.us.us
  %86 = getelementptr inbounds i8, ptr %.272110.us.us, i64 8
  %87 = add i32 %.2112.us.us, 1
  %88 = icmp sgt i32 %.in141, 1
  br i1 %88, label %.preheader.us.us, label %.loopexit, !llvm.loop !44

.loopexit:                                        ; preds = %..loopexit90_crit_edge.us, %..loopexit87_crit_edge.us, %._crit_edge108.split.us.us.us, %.preheader.lr.ph, %.lr.ph102, %.lr.ph97, %.preheader91, %.preheader88, %.preheader86
  ret void
}